#include <math.h>
#include <stdio.h>
#include <stdlib.h>
#include <string.h>



int main(int argc, char* argv[])
{
	int row,col,i,j;
	int array[100][100];
	scanf("%d%d",&row,&col);
	for(i=0;i<row;i++){
		for(j=0;j<col;j++){
			scanf("%d",&array[i][j]);
		}
	}
	for(i=0;i<row+col;i++){
		for(j=0;j<=i;j++){
			if(j>row-1||i-j>col-1)
				continue;
			if(j<row&&i-j<col)
				printf("%d\n",array[j][i-j]);
		}
	}
	return 0;
}
