; ModuleID = '4/1550.c'
source_filename = "4/1550.c"
target datalayout = "e-m:e-p270:32:32-p271:32:32-p272:64:64-i64:64-f80:128-n8:16:32:64-S128"
target triple = "x86_64-pc-linux-gnu"

@.str = private unnamed_addr constant [5 x i8] c"%d%d\00", align 1
@.str.1 = private unnamed_addr constant [3 x i8] c"%d\00", align 1
@.str.2 = private unnamed_addr constant [4 x i8] c"%d\0A\00", align 1

; Function Attrs: noinline nounwind uwtable
define dso_local i32 @main(i32 %0, i8** %1) #0 {
  %3 = alloca i32, align 4
  %4 = alloca i32, align 4
  %5 = alloca i8**, align 8
  %6 = alloca i32, align 4
  %7 = alloca i32, align 4
  %8 = alloca i32, align 4
  %9 = alloca i32, align 4
  %10 = alloca [100 x [100 x i32]], align 16
  store i32 0, i32* %3, align 4
  store i32 %0, i32* %4, align 4
  store i8** %1, i8*** %5, align 8
  %11 = call i32 (i8*, ...) @__isoc99_scanf(i8* getelementptr inbounds ([5 x i8], [5 x i8]* @.str, i64 0, i64 0), i32* %6, i32* %7)
  store i32 0, i32* %8, align 4
  br label %12

12:                                               ; preds = %33, %2
  %13 = load i32, i32* %8, align 4
  %14 = load i32, i32* %6, align 4
  %15 = icmp slt i32 %13, %14
  br i1 %15, label %16, label %36

16:                                               ; preds = %12
  store i32 0, i32* %9, align 4
  br label %17

17:                                               ; preds = %29, %16
  %18 = load i32, i32* %9, align 4
  %19 = load i32, i32* %7, align 4
  %20 = icmp slt i32 %18, %19
  br i1 %20, label %21, label %32

21:                                               ; preds = %17
  %22 = load i32, i32* %8, align 4
  %23 = sext i32 %22 to i64
  %24 = getelementptr inbounds [100 x [100 x i32]], [100 x [100 x i32]]* %10, i64 0, i64 %23
  %25 = load i32, i32* %9, align 4
  %26 = sext i32 %25 to i64
  %27 = getelementptr inbounds [100 x i32], [100 x i32]* %24, i64 0, i64 %26
  %28 = call i32 (i8*, ...) @__isoc99_scanf(i8* getelementptr inbounds ([3 x i8], [3 x i8]* @.str.1, i64 0, i64 0), i32* %27)
  br label %29

29:                                               ; preds = %21
  %30 = load i32, i32* %9, align 4
  %31 = add nsw i32 %30, 1
  store i32 %31, i32* %9, align 4
  br label %17

32:                                               ; preds = %17
  br label %33

33:                                               ; preds = %32
  %34 = load i32, i32* %8, align 4
  %35 = add nsw i32 %34, 1
  store i32 %35, i32* %8, align 4
  br label %12

36:                                               ; preds = %12
  store i32 0, i32* %8, align 4
  br label %37

37:                                               ; preds = %87, %36
  %38 = load i32, i32* %8, align 4
  %39 = load i32, i32* %6, align 4
  %40 = load i32, i32* %7, align 4
  %41 = add nsw i32 %39, %40
  %42 = icmp slt i32 %38, %41
  br i1 %42, label %43, label %90

43:                                               ; preds = %37
  store i32 0, i32* %9, align 4
  br label %44

44:                                               ; preds = %83, %43
  %45 = load i32, i32* %9, align 4
  %46 = load i32, i32* %8, align 4
  %47 = icmp sle i32 %45, %46
  br i1 %47, label %48, label %86

48:                                               ; preds = %44
  %49 = load i32, i32* %9, align 4
  %50 = load i32, i32* %6, align 4
  %51 = sub nsw i32 %50, 1
  %52 = icmp sgt i32 %49, %51
  br i1 %52, label %60, label %53

53:                                               ; preds = %48
  %54 = load i32, i32* %8, align 4
  %55 = load i32, i32* %9, align 4
  %56 = sub nsw i32 %54, %55
  %57 = load i32, i32* %7, align 4
  %58 = sub nsw i32 %57, 1
  %59 = icmp sgt i32 %56, %58
  br i1 %59, label %60, label %61

60:                                               ; preds = %53, %48
  br label %83

61:                                               ; preds = %53
  %62 = load i32, i32* %9, align 4
  %63 = load i32, i32* %6, align 4
  %64 = icmp slt i32 %62, %63
  br i1 %64, label %65, label %82

65:                                               ; preds = %61
  %66 = load i32, i32* %8, align 4
  %67 = load i32, i32* %9, align 4
  %68 = sub nsw i32 %66, %67
  %69 = load i32, i32* %7, align 4
  %70 = icmp slt i32 %68, %69
  br i1 %70, label %71, label %82

71:                                               ; preds = %65
  %72 = load i32, i32* %9, align 4
  %73 = sext i32 %72 to i64
  %74 = getelementptr inbounds [100 x [100 x i32]], [100 x [100 x i32]]* %10, i64 0, i64 %73
  %75 = load i32, i32* %8, align 4
  %76 = load i32, i32* %9, align 4
  %77 = sub nsw i32 %75, %76
  %78 = sext i32 %77 to i64
  %79 = getelementptr inbounds [100 x i32], [100 x i32]* %74, i64 0, i64 %78
  %80 = load i32, i32* %79, align 4
  %81 = call i32 (i8*, ...) @printf(i8* getelementptr inbounds ([4 x i8], [4 x i8]* @.str.2, i64 0, i64 0), i32 %80)
  br label %82

82:                                               ; preds = %71, %65, %61
  br label %83

83:                                               ; preds = %82, %60
  %84 = load i32, i32* %9, align 4
  %85 = add nsw i32 %84, 1
  store i32 %85, i32* %9, align 4
  br label %44

86:                                               ; preds = %44
  br label %87

87:                                               ; preds = %86
  %88 = load i32, i32* %8, align 4
  %89 = add nsw i32 %88, 1
  store i32 %89, i32* %8, align 4
  br label %37

90:                                               ; preds = %37
  ret i32 0
}

declare dso_local i32 @__isoc99_scanf(i8*, ...) #1

declare dso_local i32 @printf(i8*, ...) #1


!llvm.module.flags = !{!0}
!llvm.ident = !{!1}

!0 = !{i32 1, !"wchar_size", i32 4}
!1 = !{!"clang version 10.0.0-4ubuntu1 "}
