; ModuleID = 'source-C-CXX/3/1550.c'
source_filename = "source-C-CXX/3/1550.c"
target datalayout = "e-m:e-p270:32:32-p271:32:32-p272:64:64-i64:64-f80:128-n8:16:32:64-S128"
target triple = "x86_64-pc-linux-gnu"

@.str = private unnamed_addr constant [5 x i8] c"%d%d\00", align 1
@.str.1 = private unnamed_addr constant [3 x i8] c"%d\00", align 1
@.str.2 = private unnamed_addr constant [4 x i8] c"%d\0A\00", align 1

; Function Attrs: nofree nounwind sspstrong uwtable
define dso_local i32 @main(i32 %0, i8** nocapture readnone %1) local_unnamed_addr #0 {
  %3 = alloca i32, align 4
  %4 = alloca i32, align 4
  %5 = alloca [100 x [100 x i32]], align 16
  %6 = bitcast i32* %3 to i8*
  call void @llvm.lifetime.start.p0i8(i64 4, i8* nonnull %6) #3
  %7 = bitcast i32* %4 to i8*
  call void @llvm.lifetime.start.p0i8(i64 4, i8* nonnull %7) #3
  %8 = bitcast [100 x [100 x i32]]* %5 to i8*
  call void @llvm.lifetime.start.p0i8(i64 40000, i8* nonnull %8) #3
  %9 = call i32 (i8*, ...) @__isoc99_scanf(i8* getelementptr inbounds ([5 x i8], [5 x i8]* @.str, i64 0, i64 0), i32* nonnull %3, i32* nonnull %4)
  %10 = load i32, i32* %3, align 4, !tbaa !5
  %11 = icmp sgt i32 %10, 0
  %12 = load i32, i32* %4, align 4, !tbaa !5
  %13 = icmp sgt i32 %12, 0
  %14 = select i1 %11, i1 %13, i1 false
  br i1 %14, label %15, label %20

15:                                               ; preds = %2, %35
  %16 = phi i32 [ %36, %35 ], [ %10, %2 ]
  %17 = phi i32 [ %37, %35 ], [ %12, %2 ]
  %18 = phi i64 [ %38, %35 ], [ 0, %2 ]
  %19 = icmp sgt i32 %17, 0
  br i1 %19, label %25, label %35

20:                                               ; preds = %35, %2
  %21 = phi i32 [ %12, %2 ], [ %37, %35 ]
  %22 = phi i32 [ %10, %2 ], [ %36, %35 ]
  %23 = add nsw i32 %21, %22
  %24 = icmp sgt i32 %23, 0
  br i1 %24, label %41, label %72

25:                                               ; preds = %15, %25
  %26 = phi i64 [ %29, %25 ], [ 0, %15 ]
  %27 = getelementptr inbounds [100 x [100 x i32]], [100 x [100 x i32]]* %5, i64 0, i64 %18, i64 %26
  %28 = call i32 (i8*, ...) @__isoc99_scanf(i8* getelementptr inbounds ([3 x i8], [3 x i8]* @.str.1, i64 0, i64 0), i32* nonnull %27)
  %29 = add nuw nsw i64 %26, 1
  %30 = load i32, i32* %4, align 4, !tbaa !5
  %31 = sext i32 %30 to i64
  %32 = icmp slt i64 %29, %31
  br i1 %32, label %25, label %33, !llvm.loop !9

33:                                               ; preds = %25
  %34 = load i32, i32* %3, align 4, !tbaa !5
  br label %35

35:                                               ; preds = %33, %15
  %36 = phi i32 [ %34, %33 ], [ %16, %15 ]
  %37 = phi i32 [ %30, %33 ], [ %17, %15 ]
  %38 = add nuw nsw i64 %18, 1
  %39 = sext i32 %36 to i64
  %40 = icmp slt i64 %38, %39
  br i1 %40, label %15, label %20, !llvm.loop !11

41:                                               ; preds = %20, %64
  %42 = phi i32 [ %66, %64 ], [ %22, %20 ]
  %43 = phi i64 [ %65, %64 ], [ 0, %20 ]
  %44 = phi i64 [ %71, %64 ], [ 1, %20 ]
  br label %45

45:                                               ; preds = %62, %41
  %46 = phi i32 [ %42, %41 ], [ %63, %62 ]
  %47 = phi i64 [ 0, %41 ], [ %60, %62 ]
  %48 = sext i32 %46 to i64
  %49 = icmp slt i64 %47, %48
  br i1 %49, label %50, label %59

50:                                               ; preds = %45
  %51 = sub nsw i64 %43, %47
  %52 = load i32, i32* %4, align 4, !tbaa !5
  %53 = sext i32 %52 to i64
  %54 = icmp slt i64 %51, %53
  br i1 %54, label %55, label %59

55:                                               ; preds = %50
  %56 = getelementptr inbounds [100 x [100 x i32]], [100 x [100 x i32]]* %5, i64 0, i64 %47, i64 %51
  %57 = load i32, i32* %56, align 4, !tbaa !5
  %58 = call i32 (i8*, ...) @printf(i8* nonnull dereferenceable(1) getelementptr inbounds ([4 x i8], [4 x i8]* @.str.2, i64 0, i64 0), i32 %57)
  br label %59

59:                                               ; preds = %55, %45, %50
  %60 = add nuw nsw i64 %47, 1
  %61 = icmp eq i64 %60, %44
  br i1 %61, label %64, label %62, !llvm.loop !13

62:                                               ; preds = %59
  %63 = load i32, i32* %3, align 4, !tbaa !5
  br label %45

64:                                               ; preds = %59
  %65 = add nuw nsw i64 %43, 1
  %66 = load i32, i32* %3, align 4, !tbaa !5
  %67 = load i32, i32* %4, align 4, !tbaa !5
  %68 = add nsw i32 %67, %66
  %69 = sext i32 %68 to i64
  %70 = icmp slt i64 %65, %69
  %71 = add nuw nsw i64 %44, 1
  br i1 %70, label %41, label %72, !llvm.loop !14

72:                                               ; preds = %64, %20
  call void @llvm.lifetime.end.p0i8(i64 40000, i8* nonnull %8) #3
  call void @llvm.lifetime.end.p0i8(i64 4, i8* nonnull %7) #3
  call void @llvm.lifetime.end.p0i8(i64 4, i8* nonnull %6) #3
  ret i32 0
}

; Function Attrs: argmemonly mustprogress nofree nosync nounwind willreturn
declare void @llvm.lifetime.start.p0i8(i64 immarg, i8* nocapture) #1

; Function Attrs: nofree nounwind
declare noundef i32 @__isoc99_scanf(i8* nocapture noundef readonly, ...) local_unnamed_addr #2

; Function Attrs: nofree nounwind
declare noundef i32 @printf(i8* nocapture noundef readonly, ...) local_unnamed_addr #2

; Function Attrs: argmemonly mustprogress nofree nosync nounwind willreturn
declare void @llvm.lifetime.end.p0i8(i64 immarg, i8* nocapture) #1


!llvm.module.flags = !{!0, !1, !2, !3}
!llvm.ident = !{!4}

!0 = !{i32 1, !"wchar_size", i32 4}
!1 = !{i32 7, !"PIC Level", i32 2}
!2 = !{i32 7, !"PIE Level", i32 2}
!3 = !{i32 7, !"uwtable", i32 1}
!4 = !{!"clang version 13.0.0"}
!5 = !{!6, !6, i64 0}
!6 = !{!"int", !7, i64 0}
!7 = !{!"omnipotent char", !8, i64 0}
!8 = !{!"Simple C/C++ TBAA"}
!9 = distinct !{!9, !10}
!10 = !{!"llvm.loop.mustprogress"}
!11 = distinct !{!11, !10, !12}
!12 = !{!"llvm.loop.unswitch.partial.disable"}
!13 = distinct !{!13, !10}
!14 = distinct !{!14, !10}
